target datalayout = "e-m:e-p270:32:32-p271:32:32-p272:64:64-i64:64-f80:128-n8:16:32:64-S128"
target triple = "x86_64-pc-linux-gnu"

@.str = private unnamed_addr constant [3 x i8] c"%d\00", align 1
@.str.1 = private unnamed_addr constant [4 x i8] c"%d,\00", align 1

; Function Attrs: noinline nounwind uwtable
define dso_local i32 @main() #0 {
  %1 = alloca i32, align 4
  %2 = alloca [1000 x i8], align 16
  %3 = alloca i32, align 4
  %4 = alloca i32, align 4
  %5 = alloca i32, align 4
  %6 = alloca [300 x i32], align 16
  %7 = alloca [300 x i32], align 16
  %8 = alloca i32, align 4
  %9 = alloca i32, align 4
  %10 = alloca i32, align 4
  %11 = alloca i32, align 4
  %12 = alloca i32, align 4
  %13 = alloca i32, align 4
  store i32 0, i32* %1, align 4
  %14 = getelementptr inbounds [1000 x i8], [1000 x i8]* %2, i64 0, i64 0
  %15 = call i32 (i8*, ...) bitcast (i32 (...)* @gets to i32 (i8*, ...)*)(i8* %14)
  store i32 0, i32* %5, align 4
  %16 = getelementptr inbounds [1000 x i8], [1000 x i8]* %2, i64 0, i64 0
  %17 = call i64 @strlen(i8* %16) #3
  %18 = trunc i64 %17 to i32
  store i32 %18, i32* %3, align 4
  store i32 0, i32* %8, align 4
  br label %19

19:                                               ; preds = %65, %0
  %20 = load i32, i32* %8, align 4
  %21 = load i32, i32* %3, align 4
  %22 = sub nsw i32 %21, 1
  %23 = icmp sle i32 %20, %22
  br i1 %23, label %24, label %68

24:                                               ; preds = %19
  %25 = load i32, i32* %8, align 4
  %26 = sext i32 %25 to i64
  %27 = getelementptr inbounds [1000 x i8], [1000 x i8]* %2, i64 0, i64 %26
  %28 = load i8, i8* %27, align 1
  %29 = sext i8 %28 to i32
  %30 = icmp eq i32 %29, 32
  br i1 %30, label %31, label %64

31:                                               ; preds = %24
  %32 = load i32, i32* %8, align 4
  %33 = add nsw i32 %32, 1
  %34 = sext i32 %33 to i64
  %35 = getelementptr inbounds [1000 x i8], [1000 x i8]* %2, i64 0, i64 %34
  %36 = load i8, i8* %35, align 1
  %37 = sext i8 %36 to i32
  %38 = icmp eq i32 %37, 32
  br i1 %38, label %39, label %64

39:                                               ; preds = %31
  %40 = load i32, i32* %8, align 4
  %41 = add nsw i32 %40, 1
  store i32 %41, i32* %9, align 4
  br label %42

42:                                               ; preds = %56, %39
  %43 = load i32, i32* %9, align 4
  %44 = load i32, i32* %3, align 4
  %45 = sub nsw i32 %44, 2
  %46 = icmp sle i32 %43, %45
  br i1 %46, label %47, label %59

47:                                               ; preds = %42
  %48 = load i32, i32* %9, align 4
  %49 = add nsw i32 %48, 1
  %50 = sext i32 %49 to i64
  %51 = getelementptr inbounds [1000 x i8], [1000 x i8]* %2, i64 0, i64 %50
  %52 = load i8, i8* %51, align 1
  %53 = load i32, i32* %9, align 4
  %54 = sext i32 %53 to i64
  %55 = getelementptr inbounds [1000 x i8], [1000 x i8]* %2, i64 0, i64 %54
  store i8 %52, i8* %55, align 1
  br label %56

56:                                               ; preds = %47
  %57 = load i32, i32* %9, align 4
  %58 = add nsw i32 %57, 1
  store i32 %58, i32* %9, align 4
  br label %42

59:                                               ; preds = %42
  %60 = load i32, i32* %3, align 4
  %61 = add nsw i32 %60, -1
  store i32 %61, i32* %3, align 4
  %62 = load i32, i32* %8, align 4
  %63 = add nsw i32 %62, -1
  store i32 %63, i32* %8, align 4
  br label %64

64:                                               ; preds = %59, %31, %24
  br label %65

65:                                               ; preds = %64
  %66 = load i32, i32* %8, align 4
  %67 = add nsw i32 %66, 1
  store i32 %67, i32* %8, align 4
  br label %19

68:                                               ; preds = %19
  %69 = load i32, i32* %3, align 4
  store i32 %69, i32* %4, align 4
  store i32 0, i32* %10, align 4
  br label %70

70:                                               ; preds = %90, %68
  %71 = load i32, i32* %10, align 4
  %72 = load i32, i32* %4, align 4
  %73 = sub nsw i32 %72, 1
  %74 = icmp sle i32 %71, %73
  br i1 %74, label %75, label %93

75:                                               ; preds = %70
  %76 = load i32, i32* %10, align 4
  %77 = sext i32 %76 to i64
  %78 = getelementptr inbounds [1000 x i8], [1000 x i8]* %2, i64 0, i64 %77
  %79 = load i8, i8* %78, align 1
  %80 = sext i8 %79 to i32
  %81 = icmp eq i32 %80, 32
  br i1 %81, label %82, label %89

82:                                               ; preds = %75
  %83 = load i32, i32* %10, align 4
  %84 = load i32, i32* %5, align 4
  %85 = sext i32 %84 to i64
  %86 = getelementptr inbounds [300 x i32], [300 x i32]* %6, i64 0, i64 %85
  store i32 %83, i32* %86, align 4
  %87 = load i32, i32* %5, align 4
  %88 = add nsw i32 %87, 1
  store i32 %88, i32* %5, align 4
  br label %89

89:                                               ; preds = %82, %75
  br label %90

90:                                               ; preds = %89
  %91 = load i32, i32* %10, align 4
  %92 = add nsw i32 %91, 1
  store i32 %92, i32* %10, align 4
  br label %70

93:                                               ; preds = %70
  %94 = load i32, i32* %5, align 4
  %95 = add nsw i32 %94, -1
  store i32 %95, i32* %5, align 4
  %96 = load i32, i32* %5, align 4
  %97 = icmp slt i32 %96, 0
  br i1 %97, label %98, label %101

98:                                               ; preds = %93
  %99 = load i32, i32* %3, align 4
  %100 = call i32 (i8*, ...) @printf(i8* getelementptr inbounds ([3 x i8], [3 x i8]* @.str, i64 0, i64 0), i32 %99)
  br label %159

101:                                              ; preds = %93
  %102 = getelementptr inbounds [300 x i32], [300 x i32]* %6, i64 0, i64 0
  %103 = load i32, i32* %102, align 16
  %104 = getelementptr inbounds [300 x i32], [300 x i32]* %7, i64 0, i64 0
  store i32 %103, i32* %104, align 16
  store i32 1, i32* %11, align 4
  br label %105

105:                                              ; preds = %124, %101
  %106 = load i32, i32* %11, align 4
  %107 = load i32, i32* %5, align 4
  %108 = icmp sle i32 %106, %107
  br i1 %108, label %109, label %127

109:                                              ; preds = %105
  %110 = load i32, i32* %11, align 4
  %111 = sext i32 %110 to i64
  %112 = getelementptr inbounds [300 x i32], [300 x i32]* %6, i64 0, i64 %111
  %113 = load i32, i32* %112, align 4
  %114 = load i32, i32* %11, align 4
  %115 = sub nsw i32 %114, 1
  %116 = sext i32 %115 to i64
  %117 = getelementptr inbounds [300 x i32], [300 x i32]* %6, i64 0, i64 %116
  %118 = load i32, i32* %117, align 4
  %119 = sub nsw i32 %113, %118
  %120 = sub nsw i32 %119, 1
  %121 = load i32, i32* %11, align 4
  %122 = sext i32 %121 to i64
  %123 = getelementptr inbounds [300 x i32], [300 x i32]* %7, i64 0, i64 %122
  store i32 %120, i32* %123, align 4
  br label %124

124:                                              ; preds = %109
  %125 = load i32, i32* %11, align 4
  %126 = add nsw i32 %125, 1
  store i32 %126, i32* %11, align 4
  br label %105

127:                                              ; preds = %105
  %128 = load i32, i32* %4, align 4
  %129 = load i32, i32* %5, align 4
  %130 = sext i32 %129 to i64
  %131 = getelementptr inbounds [300 x i32], [300 x i32]* %6, i64 0, i64 %130
  %132 = load i32, i32* %131, align 4
  %133 = sub nsw i32 %128, %132
  %134 = sub nsw i32 %133, 1
  %135 = load i32, i32* %5, align 4
  %136 = add nsw i32 %135, 1
  %137 = sext i32 %136 to i64
  %138 = getelementptr inbounds [300 x i32], [300 x i32]* %7, i64 0, i64 %137
  store i32 %134, i32* %138, align 4
  store i32 0, i32* %12, align 4
  br label %139

139:                                              ; preds = %149, %127
  %140 = load i32, i32* %12, align 4
  %141 = load i32, i32* %5, align 4
  %142 = icmp sle i32 %140, %141
  br i1 %142, label %143, label %152

143:                                              ; preds = %139
  %144 = load i32, i32* %12, align 4
  %145 = sext i32 %144 to i64
  %146 = getelementptr inbounds [300 x i32], [300 x i32]* %7, i64 0, i64 %145
  %147 = load i32, i32* %146, align 4
  %148 = call i32 (i8*, ...) @printf(i8* getelementptr inbounds ([4 x i8], [4 x i8]* @.str.1, i64 0, i64 0), i32 %147)
  br label %149

149:                                              ; preds = %143
  %150 = load i32, i32* %12, align 4
  %151 = add nsw i32 %150, 1
  store i32 %151, i32* %12, align 4
  br label %139

152:                                              ; preds = %139
  %153 = load i32, i32* %5, align 4
  %154 = add nsw i32 %153, 1
  %155 = sext i32 %154 to i64
  %156 = getelementptr inbounds [300 x i32], [300 x i32]* %7, i64 0, i64 %155
  %157 = load i32, i32* %156, align 4
  %158 = call i32 (i8*, ...) @printf(i8* getelementptr inbounds ([3 x i8], [3 x i8]* @.str, i64 0, i64 0), i32 %157)
  br label %159

159:                                              ; preds = %152, %98
  %160 = call i32 (i8*, ...) @__isoc99_scanf(i8* getelementptr inbounds ([3 x i8], [3 x i8]* @.str, i64 0, i64 0), i32* %13)
  ret i32 0
}